target datalayout = "e-m:e-p270:32:32-p271:32:32-p272:64:64-i64:64-i128:128-f80:128-n8:16:32:64-S128"
target triple = "x86_64-pc-linux-gnu"

@PyExc_OSError = external global ptr, align 8
@.str.22 = private unnamed_addr constant [12 x i8] c"fcntl.flock\00", align 1
@.str.23 = private unnamed_addr constant [3 x i8] c"ii\00", align 1

; Function Attrs: nounwind uwtable
define internal ptr @fcntl_flock_impl(ptr noundef %0, i32 noundef %1, i32 noundef %2) #0 {
  %4 = alloca ptr, align 8
  %5 = alloca ptr, align 8
  %6 = alloca i32, align 4
  %7 = alloca i32, align 4
  %8 = alloca i32, align 4
  %9 = alloca i32, align 4
  %10 = alloca i32, align 4
  %11 = alloca ptr, align 8
  store ptr %0, ptr %5, align 8, !tbaa !3
  store i32 %1, ptr %6, align 4, !tbaa !12
  store i32 %2, ptr %7, align 4, !tbaa !12
  call void @llvm.lifetime.start.p0(i64 4, ptr %8) #7
  call void @llvm.lifetime.start.p0(i64 4, ptr %9) #7
  store i32 0, ptr %9, align 4, !tbaa !12
  %12 = load i32, ptr %6, align 4, !tbaa !12
  %13 = load i32, ptr %7, align 4, !tbaa !12
  %14 = call i32 (ptr, ptr, ...) @PySys_Audit(ptr noundef @.str.22, ptr noundef @.str.23, i32 noundef %12, i32 noundef %13)
  %15 = icmp slt i32 %14, 0
  br i1 %15, label %16, label %17

16:                                               ; preds = %3
  store ptr null, ptr %4, align 8
  store i32 1, ptr %10, align 4
  br label %51

17:                                               ; preds = %3
  br label %18

18:                                               ; preds = %35, %17
  call void @llvm.lifetime.start.p0(i64 8, ptr %11) #7
  %19 = call ptr @PyEval_SaveThread()
  store ptr %19, ptr %11, align 8, !tbaa !16
  %20 = load i32, ptr %6, align 4, !tbaa !12
  %21 = load i32, ptr %7, align 4, !tbaa !12
  %22 = call i32 @flock(i32 noundef %20, i32 noundef %21) #7
  store i32 %22, ptr %8, align 4, !tbaa !12
  %23 = load ptr, ptr %11, align 8, !tbaa !16
  call void @PyEval_RestoreThread(ptr noundef %23)
  call void @llvm.lifetime.end.p0(i64 8, ptr %11) #7
  br label %24

24:                                               ; preds = %18
  %25 = load i32, ptr %8, align 4, !tbaa !12
  %26 = icmp eq i32 %25, -1
  br i1 %26, label %27, label %35

27:                                               ; preds = %24
  %28 = call ptr @__errno_location() #8
  %29 = load i32, ptr %28, align 4, !tbaa !12
  %30 = icmp eq i32 %29, 4
  br i1 %30, label %31, label %35

31:                                               ; preds = %27
  %32 = call i32 @PyErr_CheckSignals()
  store i32 %32, ptr %9, align 4, !tbaa !12
  %33 = icmp ne i32 %32, 0
  %34 = xor i1 %33, true
  br label %35

35:                                               ; preds = %31, %27, %24
  %36 = phi i1 [ false, %27 ], [ false, %24 ], [ %34, %31 ]
  br i1 %36, label %18, label %37, !llvm.loop !30

37:                                               ; preds = %35
  %38 = load i32, ptr %8, align 4, !tbaa !12
  %39 = icmp slt i32 %38, 0
  br i1 %39, label %40, label %49

40:                                               ; preds = %37
  %41 = load i32, ptr %9, align 4, !tbaa !12
  %42 = icmp ne i32 %41, 0
  br i1 %42, label %46, label %43

43:                                               ; preds = %40
  %44 = load ptr, ptr @PyExc_OSError, align 8, !tbaa !3
  %45 = call ptr @PyErr_SetFromErrno(ptr noundef %44)
  br label %47

46:                                               ; preds = %40
  br label %47

47:                                               ; preds = %46, %43
  %48 = phi ptr [ %45, %43 ], [ null, %46 ]
  store ptr %48, ptr %4, align 8
  store i32 1, ptr %10, align 4
  br label %51

49:                                               ; preds = %37
  %50 = call ptr @Py_GetConstantBorrowed(i32 noundef 0)
  store ptr %50, ptr %4, align 8
  store i32 1, ptr %10, align 4
  br label %51

51:                                               ; preds = %49, %47, %16
  call void @llvm.lifetime.end.p0(i64 4, ptr %9) #7
  call void @llvm.lifetime.end.p0(i64 4, ptr %8) #7
  %52 = load ptr, ptr %4, align 8
  ret ptr %52
}