; Function Attrs: nounwind uwtable
define internal fastcc ptr @fcntl_flock_impl(i32 noundef range(i32 0, -2147483648) %0, i32 noundef %1) unnamed_addr #0 {
  %3 = tail call i32 (ptr, ptr, ...) @PySys_Audit(ptr noundef nonnull @.str.22, ptr noundef nonnull @.str.23, i32 noundef %0, i32 noundef %1) #7
  %4 = icmp slt i32 %3, 0
  br i1 %4, label %.loopexit, label %.preheader

.preheader:                                       ; preds = %2, %12
  %5 = tail call ptr @PyEval_SaveThread() #7
  %6 = tail call i32 @flock(i32 noundef %0, i32 noundef %1) #7
  tail call void @PyEval_RestoreThread(ptr noundef %5) #7
  %7 = icmp eq i32 %6, -1
  br i1 %7, label %8, label %.critedge

8:                                                ; preds = %.preheader
  %9 = tail call ptr @__errno_location() #8
  %10 = load i32, ptr %9, align 4, !tbaa !8
  %11 = icmp eq i32 %10, 4
  br i1 %11, label %12, label %.thread5

12:                                               ; preds = %8
  %13 = tail call i32 @PyErr_CheckSignals() #7
  %.not = icmp eq i32 %13, 0
  br i1 %.not, label %.preheader, label %.loopexit, !llvm.loop !32

.critedge:                                        ; preds = %.preheader
  %14 = icmp slt i32 %6, 0
  br i1 %14, label %.thread5, label %17

.thread5:                                         ; preds = %8, %.critedge
  %15 = load ptr, ptr @PyExc_OSError, align 8, !tbaa !3
  %16 = tail call ptr @PyErr_SetFromErrno(ptr noundef %15) #7
  br label %.loopexit

17:                                               ; preds = %.critedge
  %18 = tail call ptr @Py_GetConstantBorrowed(i32 noundef 0) #7
  br label %.loopexit

.loopexit:                                        ; preds = %12, %.thread5, %2, %17
  %.0 = phi ptr [ %18, %17 ], [ null, %2 ], [ %16, %.thread5 ], [ null, %12 ]
  ret ptr %.0
}